target datalayout = "e-m:e-p270:32:32-p271:32:32-p272:64:64-i64:64-i128:128-f80:128-n8:16:32:64-S128"
target triple = "x86_64-pc-linux-gnu"

%struct.SDL_WaylandDataDevice = type { ptr, ptr, ptr, i32, ptr, ptr, ptr, i8, i8, ptr, i32, ptr }
%struct.SDL_WaylandDataOffer = type { ptr, %struct.wl_list, ptr, ptr, i32 }
%struct.wl_list = type { ptr, ptr }

@WAYLAND_wl_proxy_destroy = external global ptr, align 8

; Function Attrs: inlinehint nounwind uwtable
define internal void @wl_callback_destroy(ptr noundef %0) #3 {
  %2 = alloca ptr, align 8
  store ptr %0, ptr %2, align 8
  %3 = load ptr, ptr @WAYLAND_wl_proxy_destroy, align 8
  %4 = load ptr, ptr %2, align 8
  call void %3(ptr noundef %4)
  ret void
}

; Function Attrs: nounwind uwtable
define internal void @offer_source_done_handler(ptr noundef %0, ptr noundef %1, i32 noundef %2) #0 {
  %4 = alloca ptr, align 8
  %5 = alloca ptr, align 8
  %6 = alloca i32, align 4
  %7 = alloca ptr, align 8
  %8 = alloca ptr, align 8
  %9 = alloca i64, align 8
  %10 = alloca i8, align 1
  store ptr %0, ptr %4, align 8
  store ptr %1, ptr %5, align 8
  store i32 %2, ptr %6, align 4
  %11 = load ptr, ptr %5, align 8
  %12 = icmp ne ptr %11, null
  br i1 %12, label %14, label %13

13:                                               ; preds = %3
  br label %55

14:                                               ; preds = %3
  call void @llvm.lifetime.start.p0(i64 8, ptr %7) #9
  %15 = load ptr, ptr %4, align 8
  store ptr %15, ptr %7, align 8
  call void @llvm.lifetime.start.p0(i64 8, ptr %8) #9
  store ptr null, ptr %8, align 8
  call void @llvm.lifetime.start.p0(i64 8, ptr %9) #9
  store i64 0, ptr %9, align 8
  %16 = load ptr, ptr %7, align 8
  %17 = getelementptr inbounds nuw %struct.SDL_WaylandDataOffer, ptr %16, i32 0, i32 3
  %18 = load ptr, ptr %17, align 8
  call void @wl_callback_destroy(ptr noundef %18)
  %19 = load ptr, ptr %7, align 8
  %20 = getelementptr inbounds nuw %struct.SDL_WaylandDataOffer, ptr %19, i32 0, i32 3
  store ptr null, ptr %20, align 8
  br label %21

21:                                               ; preds = %27, %14
  %22 = load ptr, ptr %7, align 8
  %23 = getelementptr inbounds nuw %struct.SDL_WaylandDataOffer, ptr %22, i32 0, i32 4
  %24 = load i32, ptr %23, align 8
  %25 = call i64 @read_pipe(i32 noundef %24, ptr noundef %8, ptr noundef %9)
  %26 = icmp sgt i64 %25, 0
  br i1 %26, label %27, label %28

27:                                               ; preds = %21
  br label %21, !llvm.loop !15

28:                                               ; preds = %21
  %29 = load ptr, ptr %7, align 8
  %30 = getelementptr inbounds nuw %struct.SDL_WaylandDataOffer, ptr %29, i32 0, i32 4
  %31 = load i32, ptr %30, align 8
  %32 = call i32 @close(i32 noundef %31)
  %33 = load ptr, ptr %7, align 8
  %34 = getelementptr inbounds nuw %struct.SDL_WaylandDataOffer, ptr %33, i32 0, i32 4
  store i32 -1, ptr %34, align 8
  %35 = load ptr, ptr %8, align 8
  %36 = icmp ne ptr %35, null
  br i1 %36, label %37, label %54

37:                                               ; preds = %28
  call void @llvm.lifetime.start.p0(i64 1, ptr %10) #9
  %38 = load ptr, ptr %7, align 8
  %39 = getelementptr inbounds nuw %struct.SDL_WaylandDataOffer, ptr %38, i32 0, i32 2
  %40 = load ptr, ptr %39, align 8
  %41 = getelementptr inbounds nuw %struct.SDL_WaylandDataDevice, ptr %40, i32 0, i32 2
  %42 = load ptr, ptr %41, align 8
  %43 = load ptr, ptr %8, align 8
  %44 = load i64, ptr %9, align 8
  %45 = call i32 @SDL_strncmp_REAL(ptr noundef %42, ptr noundef %43, i64 noundef %44)
  %46 = icmp ne i32 %45, 0
  %47 = zext i1 %46 to i8
  store i8 %47, ptr %10, align 1
  %48 = load ptr, ptr %8, align 8
  call void @SDL_free_REAL(ptr noundef %48)
  %49 = load i8, ptr %10, align 1, !range !5, !noundef !6
  %50 = trunc i8 %49 to i1
  br i1 %50, label %51, label %53

51:                                               ; preds = %37
  %52 = load ptr, ptr %7, align 8
  call void @Wayland_data_offer_notify_from_mimes(ptr noundef %52, i1 noundef zeroext false)
  br label %53

53:                                               ; preds = %51, %37
  call void @llvm.lifetime.end.p0(i64 1, ptr %10) #9
  br label %54

54:                                               ; preds = %53, %28
  call void @llvm.lifetime.end.p0(i64 8, ptr %9) #9
  call void @llvm.lifetime.end.p0(i64 8, ptr %8) #9
  call void @llvm.lifetime.end.p0(i64 8, ptr %7) #9
  br label %55

55:                                               ; preds = %54, %13
  ret void
}