; Function Attrs: nounwind uwtable
define internal void @offer_source_done_handler(ptr noundef %0, ptr noundef readnone captures(address_is_null) %1, i32 %2) #0 {
  %4 = alloca ptr, align 8
  %5 = alloca i64, align 8
  %.not = icmp eq ptr %1, null
  br i1 %.not, label %28, label %6

6:                                                ; preds = %3
  call void @llvm.lifetime.start.p0(i64 8, ptr nonnull %4) #12
  store ptr null, ptr %4, align 8
  call void @llvm.lifetime.start.p0(i64 8, ptr nonnull %5) #12
  store i64 0, ptr %5, align 8
  %7 = getelementptr inbounds nuw i8, ptr %0, i64 32
  %8 = load ptr, ptr %7, align 8
  %9 = load ptr, ptr @WAYLAND_wl_proxy_destroy, align 8
  tail call void %9(ptr noundef %8) #12
  store ptr null, ptr %7, align 8
  %10 = getelementptr inbounds nuw i8, ptr %0, i64 40
  br label %11

11:                                               ; preds = %11, %6
  %12 = load i32, ptr %10, align 8
  %13 = call fastcc i64 @read_pipe(i32 noundef %12, ptr noundef %4, ptr noundef nonnull %5)
  %14 = icmp sgt i64 %13, 0
  br i1 %14, label %11, label %15, !llvm.loop !13

15:                                               ; preds = %11
  %16 = load i32, ptr %10, align 8
  %17 = tail call i32 @close(i32 noundef %16) #12
  store i32 -1, ptr %10, align 8
  %18 = load ptr, ptr %4, align 8
  %.not9 = icmp eq ptr %18, null
  br i1 %.not9, label %27, label %19

19:                                               ; preds = %15
  %20 = getelementptr inbounds nuw i8, ptr %0, i64 24
  %21 = load ptr, ptr %20, align 8
  %22 = getelementptr inbounds nuw i8, ptr %21, i64 16
  %23 = load ptr, ptr %22, align 8
  %24 = load i64, ptr %5, align 8
  %25 = tail call i32 @SDL_strncmp_REAL(ptr noundef %23, ptr noundef nonnull %18, i64 noundef %24) #12
  %.not10 = icmp eq i32 %25, 0
  tail call void @SDL_free_REAL(ptr noundef nonnull %18) #12
  br i1 %.not10, label %27, label %26

26:                                               ; preds = %19
  tail call void @Wayland_data_offer_notify_from_mimes(ptr noundef nonnull %0, i1 noundef zeroext false)
  br label %27

27:                                               ; preds = %19, %26, %15
  call void @llvm.lifetime.end.p0(i64 8, ptr nonnull %5) #12
  call void @llvm.lifetime.end.p0(i64 8, ptr nonnull %4) #12
  br label %28

28:                                               ; preds = %3, %27
  ret void
}